target datalayout = "e-m:e-p270:32:32-p271:32:32-p272:64:64-i64:64-i128:128-f80:128-n8:16:32:64-S128"
target triple = "x86_64-pc-linux-gnu"

%struct._sapi_globals_struct = type { ptr, %struct.sapi_request_info, %struct.sapi_headers_struct, i64, i8, i8, %struct.stat, ptr, ptr, ptr, i64, i32, i8, double, %struct._zend_array, %struct._zval_struct, %struct._zend_fcall_info_cache, %struct.sapi_request_parse_body_context }
%struct.sapi_request_info = type { ptr, ptr, ptr, i64, ptr, ptr, ptr, ptr, i8, i8, i8, ptr, ptr, ptr, ptr, ptr, ptr, ptr, i32, i32, ptr, i32 }
%struct.sapi_headers_struct = type { %struct._zend_llist, i32, i8, ptr, ptr }
%struct._zend_llist = type { ptr, ptr, i64, i64, ptr, i8, ptr }
%struct.stat = type { i64, i64, i64, i32, i32, i32, i32, i64, i64, i64, i64, %struct.timespec, %struct.timespec, %struct.timespec, [3 x i64] }
%struct.timespec = type { i64, i64 }
%struct._zend_array = type { %struct._zend_refcounted_h, %union.anon.0, i32, %union.anon.1, i32, i32, i32, i32, i64, ptr }
%struct._zend_refcounted_h = type { i32, %union.anon }
%union.anon = type { i32 }
%union.anon.0 = type { i32 }
%union.anon.1 = type { ptr }
%struct._zval_struct = type { %union._zend_value, %union.anon.3, %union.anon.6 }
%union._zend_value = type { i64 }
%union.anon.3 = type { i32 }
%union.anon.6 = type { i32 }
%struct._zend_fcall_info_cache = type { ptr, ptr, ptr, ptr, ptr }
%struct.sapi_request_parse_body_context = type { i8, [5 x %struct.anon.7] }
%struct.anon.7 = type { i8, i64 }
%struct._sapi_module_struct = type { ptr, ptr, ptr, ptr, ptr, ptr, ptr, ptr, ptr, ptr, ptr, ptr, ptr, ptr, ptr, ptr, ptr, ptr, ptr, ptr, ptr, ptr, ptr, ptr, i32, i32, ptr, ptr, ptr, ptr, ptr, ptr, i32, ptr, ptr, ptr }
%struct.multipart_buffer = type { ptr, ptr, i32, i32, ptr, ptr, i32, ptr, ptr, i64 }

@sapi_globals = external global %struct._sapi_globals_struct, align 8
@sapi_module = external global %struct._sapi_module_struct, align 8

; Function Attrs: nounwind uwtable
define internal i32 @fill_buffer(ptr noundef %0) #0 {
  %2 = alloca ptr, align 8
  %3 = alloca i32, align 4
  %4 = alloca i32, align 4
  %5 = alloca i32, align 4
  %6 = alloca ptr, align 8
  %7 = alloca i32, align 4
  store ptr %0, ptr %2, align 8, !tbaa !42
  call void @llvm.lifetime.start.p0(i64 4, ptr %3) #15
  call void @llvm.lifetime.start.p0(i64 4, ptr %4) #15
  store i32 0, ptr %4, align 4, !tbaa !43
  call void @llvm.lifetime.start.p0(i64 4, ptr %5) #15
  store i32 0, ptr %5, align 4, !tbaa !43
  %8 = load ptr, ptr %2, align 8, !tbaa !42
  %9 = getelementptr inbounds nuw %struct.multipart_buffer, ptr %8, i32 0, i32 3
  %10 = load i32, ptr %9, align 4, !tbaa !107
  %11 = icmp sgt i32 %10, 0
  br i1 %11, label %12, label %31

12:                                               ; preds = %1
  %13 = load ptr, ptr %2, align 8, !tbaa !42
  %14 = getelementptr inbounds nuw %struct.multipart_buffer, ptr %13, i32 0, i32 1
  %15 = load ptr, ptr %14, align 8, !tbaa !106
  %16 = load ptr, ptr %2, align 8, !tbaa !42
  %17 = getelementptr inbounds nuw %struct.multipart_buffer, ptr %16, i32 0, i32 0
  %18 = load ptr, ptr %17, align 8, !tbaa !102
  %19 = icmp ne ptr %15, %18
  br i1 %19, label %20, label %31

20:                                               ; preds = %12
  %21 = load ptr, ptr %2, align 8, !tbaa !42
  %22 = getelementptr inbounds nuw %struct.multipart_buffer, ptr %21, i32 0, i32 0
  %23 = load ptr, ptr %22, align 8, !tbaa !102
  %24 = load ptr, ptr %2, align 8, !tbaa !42
  %25 = getelementptr inbounds nuw %struct.multipart_buffer, ptr %24, i32 0, i32 1
  %26 = load ptr, ptr %25, align 8, !tbaa !106
  %27 = load ptr, ptr %2, align 8, !tbaa !42
  %28 = getelementptr inbounds nuw %struct.multipart_buffer, ptr %27, i32 0, i32 3
  %29 = load i32, ptr %28, align 4, !tbaa !107
  %30 = sext i32 %29 to i64
  call void @llvm.memmove.p0.p0.i64(ptr align 1 %23, ptr align 1 %26, i64 %30, i1 false)
  br label %31

31:                                               ; preds = %20, %12, %1
  %32 = load ptr, ptr %2, align 8, !tbaa !42
  %33 = getelementptr inbounds nuw %struct.multipart_buffer, ptr %32, i32 0, i32 0
  %34 = load ptr, ptr %33, align 8, !tbaa !102
  %35 = load ptr, ptr %2, align 8, !tbaa !42
  %36 = getelementptr inbounds nuw %struct.multipart_buffer, ptr %35, i32 0, i32 1
  store ptr %34, ptr %36, align 8, !tbaa !106
  %37 = load ptr, ptr %2, align 8, !tbaa !42
  %38 = getelementptr inbounds nuw %struct.multipart_buffer, ptr %37, i32 0, i32 2
  %39 = load i32, ptr %38, align 8, !tbaa !104
  %40 = load ptr, ptr %2, align 8, !tbaa !42
  %41 = getelementptr inbounds nuw %struct.multipart_buffer, ptr %40, i32 0, i32 3
  %42 = load i32, ptr %41, align 4, !tbaa !107
  %43 = sub nsw i32 %39, %42
  store i32 %43, ptr %3, align 4, !tbaa !43
  br label %44

44:                                               ; preds = %84, %31
  %45 = load i32, ptr %3, align 4, !tbaa !43
  %46 = icmp sgt i32 %45, 0
  br i1 %46, label %47, label %85

47:                                               ; preds = %44
  call void @llvm.lifetime.start.p0(i64 8, ptr %6) #15
  %48 = load ptr, ptr %2, align 8, !tbaa !42
  %49 = getelementptr inbounds nuw %struct.multipart_buffer, ptr %48, i32 0, i32 0
  %50 = load ptr, ptr %49, align 8, !tbaa !102
  %51 = load ptr, ptr %2, align 8, !tbaa !42
  %52 = getelementptr inbounds nuw %struct.multipart_buffer, ptr %51, i32 0, i32 3
  %53 = load i32, ptr %52, align 4, !tbaa !107
  %54 = sext i32 %53 to i64
  %55 = getelementptr inbounds i8, ptr %50, i64 %54
  store ptr %55, ptr %6, align 8, !tbaa !41
  %56 = load ptr, ptr getelementptr inbounds nuw (%struct._sapi_module_struct, ptr @sapi_module, i32 0, i32 14), align 8, !tbaa !123
  %57 = load ptr, ptr %6, align 8, !tbaa !41
  %58 = load i32, ptr %3, align 4, !tbaa !43
  %59 = sext i32 %58 to i64
  %60 = call i64 %56(ptr noundef %57, i64 noundef %59)
  %61 = trunc i64 %60 to i32
  store i32 %61, ptr %5, align 4, !tbaa !43
  %62 = load i32, ptr %5, align 4, !tbaa !43
  %63 = icmp sgt i32 %62, 0
  br i1 %63, label %64, label %80

64:                                               ; preds = %47
  %65 = load i32, ptr %5, align 4, !tbaa !43
  %66 = load ptr, ptr %2, align 8, !tbaa !42
  %67 = getelementptr inbounds nuw %struct.multipart_buffer, ptr %66, i32 0, i32 3
  %68 = load i32, ptr %67, align 4, !tbaa !107
  %69 = add nsw i32 %68, %65
  store i32 %69, ptr %67, align 4, !tbaa !107
  %70 = load i32, ptr %5, align 4, !tbaa !43
  %71 = sext i32 %70 to i64
  %72 = load i64, ptr getelementptr inbounds nuw (%struct._sapi_globals_struct, ptr @sapi_globals, i32 0, i32 3), align 8, !tbaa !74
  %73 = add nsw i64 %72, %71
  store i64 %73, ptr getelementptr inbounds nuw (%struct._sapi_globals_struct, ptr @sapi_globals, i32 0, i32 3), align 8, !tbaa !74
  %74 = load i32, ptr %5, align 4, !tbaa !43
  %75 = load i32, ptr %4, align 4, !tbaa !43
  %76 = add nsw i32 %75, %74
  store i32 %76, ptr %4, align 4, !tbaa !43
  %77 = load i32, ptr %5, align 4, !tbaa !43
  %78 = load i32, ptr %3, align 4, !tbaa !43
  %79 = sub nsw i32 %78, %77
  store i32 %79, ptr %3, align 4, !tbaa !43
  br label %81

80:                                               ; preds = %47
  store i32 3, ptr %7, align 4
  br label %82

81:                                               ; preds = %64
  store i32 0, ptr %7, align 4
  br label %82

82:                                               ; preds = %81, %80
  call void @llvm.lifetime.end.p0(i64 8, ptr %6) #15
  %83 = load i32, ptr %7, align 4
  switch i32 %83, label %87 [
    i32 0, label %84
    i32 3, label %85
  ]

84:                                               ; preds = %82
  br label %44

85:                                               ; preds = %82, %44
  %86 = load i32, ptr %4, align 4, !tbaa !43
  store i32 1, ptr %7, align 4
  call void @llvm.lifetime.end.p0(i64 4, ptr %5) #15
  call void @llvm.lifetime.end.p0(i64 4, ptr %4) #15
  call void @llvm.lifetime.end.p0(i64 4, ptr %3) #15
  ret i32 %86

87:                                               ; preds = %82
  unreachable
}

; Function Attrs: nounwind uwtable
define internal ptr @next_line(ptr noundef %0) #0 {
  %2 = alloca ptr, align 8
  %3 = alloca ptr, align 8
  %4 = alloca ptr, align 8
  %5 = alloca ptr, align 8
  %6 = alloca i32, align 4
  store ptr %0, ptr %3, align 8, !tbaa !42
  call void @llvm.lifetime.start.p0(i64 8, ptr %4) #15
  %7 = load ptr, ptr %3, align 8, !tbaa !42
  %8 = getelementptr inbounds nuw %struct.multipart_buffer, ptr %7, i32 0, i32 1
  %9 = load ptr, ptr %8, align 8, !tbaa !106
  store ptr %9, ptr %4, align 8, !tbaa !41
  call void @llvm.lifetime.start.p0(i64 8, ptr %5) #15
  %10 = load ptr, ptr %3, align 8, !tbaa !42
  %11 = getelementptr inbounds nuw %struct.multipart_buffer, ptr %10, i32 0, i32 1
  %12 = load ptr, ptr %11, align 8, !tbaa !106
  %13 = load ptr, ptr %3, align 8, !tbaa !42
  %14 = getelementptr inbounds nuw %struct.multipart_buffer, ptr %13, i32 0, i32 3
  %15 = load i32, ptr %14, align 4, !tbaa !107
  %16 = sext i32 %15 to i64
  %17 = call ptr @memchr(ptr noundef %12, i32 noundef 10, i64 noundef %16) #16
  store ptr %17, ptr %5, align 8, !tbaa !41
  %18 = load ptr, ptr %5, align 8, !tbaa !41
  %19 = icmp ne ptr %18, null
  br i1 %19, label %20, label %56

20:                                               ; preds = %1
  %21 = load ptr, ptr %5, align 8, !tbaa !41
  %22 = load ptr, ptr %4, align 8, !tbaa !41
  %23 = ptrtoint ptr %21 to i64
  %24 = ptrtoint ptr %22 to i64
  %25 = sub i64 %23, %24
  %26 = icmp sgt i64 %25, 0
  br i1 %26, label %27, label %36

27:                                               ; preds = %20
  %28 = load ptr, ptr %5, align 8, !tbaa !41
  %29 = getelementptr inbounds i8, ptr %28, i64 -1
  %30 = load i8, ptr %29, align 1, !tbaa !33
  %31 = sext i8 %30 to i32
  %32 = icmp eq i32 %31, 13
  br i1 %32, label %33, label %36

33:                                               ; preds = %27
  %34 = load ptr, ptr %5, align 8, !tbaa !41
  %35 = getelementptr inbounds i8, ptr %34, i64 -1
  store i8 0, ptr %35, align 1, !tbaa !33
  br label %38

36:                                               ; preds = %27, %20
  %37 = load ptr, ptr %5, align 8, !tbaa !41
  store i8 0, ptr %37, align 1, !tbaa !33
  br label %38

38:                                               ; preds = %36, %33
  %39 = load ptr, ptr %5, align 8, !tbaa !41
  %40 = getelementptr inbounds i8, ptr %39, i64 1
  %41 = load ptr, ptr %3, align 8, !tbaa !42
  %42 = getelementptr inbounds nuw %struct.multipart_buffer, ptr %41, i32 0, i32 1
  store ptr %40, ptr %42, align 8, !tbaa !106
  %43 = load ptr, ptr %3, align 8, !tbaa !42
  %44 = getelementptr inbounds nuw %struct.multipart_buffer, ptr %43, i32 0, i32 1
  %45 = load ptr, ptr %44, align 8, !tbaa !106
  %46 = load ptr, ptr %4, align 8, !tbaa !41
  %47 = ptrtoint ptr %45 to i64
  %48 = ptrtoint ptr %46 to i64
  %49 = sub i64 %47, %48
  %50 = load ptr, ptr %3, align 8, !tbaa !42
  %51 = getelementptr inbounds nuw %struct.multipart_buffer, ptr %50, i32 0, i32 3
  %52 = load i32, ptr %51, align 4, !tbaa !107
  %53 = sext i32 %52 to i64
  %54 = sub nsw i64 %53, %49
  %55 = trunc i64 %54 to i32
  store i32 %55, ptr %51, align 4, !tbaa !107
  br label %74

56:                                               ; preds = %1
  %57 = load ptr, ptr %3, align 8, !tbaa !42
  %58 = getelementptr inbounds nuw %struct.multipart_buffer, ptr %57, i32 0, i32 3
  %59 = load i32, ptr %58, align 4, !tbaa !107
  %60 = load ptr, ptr %3, align 8, !tbaa !42
  %61 = getelementptr inbounds nuw %struct.multipart_buffer, ptr %60, i32 0, i32 2
  %62 = load i32, ptr %61, align 8, !tbaa !104
  %63 = icmp slt i32 %59, %62
  br i1 %63, label %64, label %65

64:                                               ; preds = %56
  store ptr null, ptr %2, align 8
  store i32 1, ptr %6, align 4
  br label %76

65:                                               ; preds = %56
  %66 = load ptr, ptr %4, align 8, !tbaa !41
  %67 = load ptr, ptr %3, align 8, !tbaa !42
  %68 = getelementptr inbounds nuw %struct.multipart_buffer, ptr %67, i32 0, i32 2
  %69 = load i32, ptr %68, align 8, !tbaa !104
  %70 = sext i32 %69 to i64
  %71 = getelementptr inbounds i8, ptr %66, i64 %70
  store i8 0, ptr %71, align 1, !tbaa !33
  %72 = load ptr, ptr %3, align 8, !tbaa !42
  %73 = getelementptr inbounds nuw %struct.multipart_buffer, ptr %72, i32 0, i32 3
  store i32 0, ptr %73, align 4, !tbaa !107
  br label %74

74:                                               ; preds = %65, %38
  %75 = load ptr, ptr %4, align 8, !tbaa !41
  store ptr %75, ptr %2, align 8
  store i32 1, ptr %6, align 4
  br label %76

76:                                               ; preds = %74, %64
  call void @llvm.lifetime.end.p0(i64 8, ptr %5) #15
  call void @llvm.lifetime.end.p0(i64 8, ptr %4) #15
  %77 = load ptr, ptr %2, align 8
  ret ptr %77
}

; Function Attrs: nounwind uwtable
define internal ptr @get_line(ptr noundef %0) #0 {
  %2 = alloca ptr, align 8
  %3 = alloca ptr, align 8
  store ptr %0, ptr %2, align 8, !tbaa !42
  call void @llvm.lifetime.start.p0(i64 8, ptr %3) #15
  %4 = load ptr, ptr %2, align 8, !tbaa !42
  %5 = call ptr @next_line(ptr noundef %4)
  store ptr %5, ptr %3, align 8, !tbaa !41
  %6 = load ptr, ptr %3, align 8, !tbaa !41
  %7 = icmp ne ptr %6, null
  br i1 %7, label %13, label %8

8:                                                ; preds = %1
  %9 = load ptr, ptr %2, align 8, !tbaa !42
  %10 = call i32 @fill_buffer(ptr noundef %9)
  %11 = load ptr, ptr %2, align 8, !tbaa !42
  %12 = call ptr @next_line(ptr noundef %11)
  store ptr %12, ptr %3, align 8, !tbaa !41
  br label %13

13:                                               ; preds = %8, %1
  %14 = load ptr, ptr %3, align 8, !tbaa !41
  call void @llvm.lifetime.end.p0(i64 8, ptr %3) #15
  ret ptr %14
}