; Function Attrs: nounwind uwtable
define internal fastcc noundef ptr @get_line(ptr noundef captures(none) %0) unnamed_addr #0 {
  %2 = getelementptr inbounds nuw i8, ptr %0, i64 8
  %3 = load ptr, ptr %2, align 8, !tbaa !55
  %4 = getelementptr inbounds nuw i8, ptr %0, i64 20
  %5 = load i32, ptr %4, align 4, !tbaa !56
  %6 = sext i32 %5 to i64
  %7 = tail call ptr @memchr(ptr noundef %3, i32 noundef 10, i64 noundef %6) #22
  %.not.i = icmp eq ptr %7, null
  br i1 %.not.i, label %19, label %8

8:                                                ; preds = %1
  %9 = ptrtoint ptr %7 to i64
  %10 = ptrtoint ptr %3 to i64
  %11 = sub i64 %9, %10
  %12 = icmp sgt i64 %11, 0
  br i1 %12, label %13, label %18

13:                                               ; preds = %8
  %14 = getelementptr inbounds i8, ptr %7, i64 -1
  %15 = load i8, ptr %14, align 1, !tbaa !32
  %16 = icmp eq i8 %15, 13
  br i1 %16, label %17, label %18

17:                                               ; preds = %13
  store i8 0, ptr %14, align 1, !tbaa !32
  br label %next_line.exit

18:                                               ; preds = %13, %8
  store i8 0, ptr %7, align 1, !tbaa !32
  br label %next_line.exit

19:                                               ; preds = %1
  %20 = getelementptr inbounds nuw i8, ptr %0, i64 16
  %21 = load i32, ptr %20, align 8, !tbaa !53
  %22 = icmp slt i32 %5, %21
  br i1 %22, label %next_line.exit.thread, label %next_line.exit.thread14

next_line.exit.thread14:                          ; preds = %19
  %23 = sext i32 %21 to i64
  %24 = getelementptr inbounds i8, ptr %3, i64 %23
  store i8 0, ptr %24, align 1, !tbaa !32
  br label %next_line.exit11.sink.split

next_line.exit:                                   ; preds = %17, %18
  %25 = getelementptr inbounds nuw i8, ptr %7, i64 1
  store ptr %25, ptr %2, align 8, !tbaa !55
  %26 = ptrtoint ptr %25 to i64
  %.neg.i = sub i64 %10, %26
  %27 = load i32, ptr %4, align 4, !tbaa !56
  %28 = trunc i64 %.neg.i to i32
  %29 = add i32 %27, %28
  store i32 %29, ptr %4, align 4, !tbaa !56
  %.not = icmp eq ptr %3, null
  br i1 %.not, label %next_line.exit.thread, label %next_line.exit11

next_line.exit.thread:                            ; preds = %19, %next_line.exit
  %30 = phi ptr [ %25, %next_line.exit ], [ %3, %19 ]
  %31 = phi i32 [ %29, %next_line.exit ], [ %5, %19 ]
  %32 = icmp slt i32 %31, 1
  %.pre39.i = load ptr, ptr %0, align 8, !tbaa !49
  %.not.i6 = icmp eq ptr %30, %.pre39.i
  %or.cond = select i1 %32, i1 true, i1 %.not.i6
  br i1 %or.cond, label %35, label %33

33:                                               ; preds = %next_line.exit.thread
  %34 = zext nneg i32 %31 to i64
  tail call void @llvm.memmove.p0.p0.i64(ptr align 1 %.pre39.i, ptr align 1 %30, i64 %34, i1 false)
  %.pre.i = load ptr, ptr %0, align 8, !tbaa !49
  %.pre40.i = load i32, ptr %4, align 4, !tbaa !56
  br label %35

35:                                               ; preds = %33, %next_line.exit.thread
  %36 = phi i32 [ %.pre40.i, %33 ], [ %31, %next_line.exit.thread ]
  %37 = phi ptr [ %.pre.i, %33 ], [ %.pre39.i, %next_line.exit.thread ]
  store ptr %37, ptr %2, align 8, !tbaa !55
  %38 = getelementptr inbounds nuw i8, ptr %0, i64 16
  %39 = load i32, ptr %38, align 8, !tbaa !53
  %40 = sub nsw i32 %39, %36
  %41 = icmp sgt i32 %40, 0
  br i1 %41, label %.lr.ph.i, label %fill_buffer.exit

.lr.ph.i:                                         ; preds = %35, %51
  %42 = phi i32 [ %52, %51 ], [ %36, %35 ]
  %.02436.i = phi i32 [ %56, %51 ], [ %40, %35 ]
  %43 = load ptr, ptr %0, align 8, !tbaa !49
  %44 = sext i32 %42 to i64
  %45 = getelementptr inbounds i8, ptr %43, i64 %44
  %46 = load ptr, ptr getelementptr inbounds nuw (i8, ptr @sapi_module, i64 112), align 8, !tbaa !60
  %47 = zext nneg i32 %.02436.i to i64
  %48 = tail call i64 %46(ptr noundef %45, i64 noundef %47) #21
  %49 = trunc i64 %48 to i32
  %50 = icmp sgt i32 %49, 0
  %.pre17.pre = load i32, ptr %4, align 4, !tbaa !56
  br i1 %50, label %51, label %fill_buffer.exit.loopexit

51:                                               ; preds = %.lr.ph.i
  %52 = add nsw i32 %.pre17.pre, %49
  store i32 %52, ptr %4, align 4, !tbaa !56
  %53 = and i64 %48, 2147483647
  %54 = load i64, ptr getelementptr inbounds nuw (i8, ptr @sapi_globals, i64 240), align 8, !tbaa !61
  %55 = add nsw i64 %54, %53
  store i64 %55, ptr getelementptr inbounds nuw (i8, ptr @sapi_globals, i64 240), align 8, !tbaa !61
  %56 = sub nsw i32 %.02436.i, %49
  %57 = icmp sgt i32 %56, 0
  br i1 %57, label %.lr.ph.i, label %fill_buffer.exit.loopexit

fill_buffer.exit.loopexit:                        ; preds = %51, %.lr.ph.i
  %.pre17 = phi i32 [ %52, %51 ], [ %.pre17.pre, %.lr.ph.i ]
  %.pre = load ptr, ptr %2, align 8, !tbaa !55
  br label %fill_buffer.exit

fill_buffer.exit:                                 ; preds = %fill_buffer.exit.loopexit, %35
  %58 = phi i32 [ %.pre17, %fill_buffer.exit.loopexit ], [ %36, %35 ]
  %59 = phi ptr [ %.pre, %fill_buffer.exit.loopexit ], [ %37, %35 ]
  %60 = sext i32 %58 to i64
  %61 = tail call ptr @memchr(ptr noundef %59, i32 noundef 10, i64 noundef %60) #22
  %.not.i7 = icmp eq ptr %61, null
  br i1 %.not.i7, label %79, label %62

62:                                               ; preds = %fill_buffer.exit
  %63 = ptrtoint ptr %61 to i64
  %64 = ptrtoint ptr %59 to i64
  %65 = sub i64 %63, %64
  %66 = icmp sgt i64 %65, 0
  br i1 %66, label %67, label %72

67:                                               ; preds = %62
  %68 = getelementptr inbounds i8, ptr %61, i64 -1
  %69 = load i8, ptr %68, align 1, !tbaa !32
  %70 = icmp eq i8 %69, 13
  br i1 %70, label %71, label %72

71:                                               ; preds = %67
  store i8 0, ptr %68, align 1, !tbaa !32
  br label %73

72:                                               ; preds = %67, %62
  store i8 0, ptr %61, align 1, !tbaa !32
  br label %73

73:                                               ; preds = %72, %71
  %74 = getelementptr inbounds nuw i8, ptr %61, i64 1
  store ptr %74, ptr %2, align 8, !tbaa !55
  %75 = ptrtoint ptr %74 to i64
  %.neg.i8 = sub i64 %64, %75
  %76 = load i32, ptr %4, align 4, !tbaa !56
  %77 = trunc i64 %.neg.i8 to i32
  %78 = add i32 %76, %77
  br label %next_line.exit11.sink.split

79:                                               ; preds = %fill_buffer.exit
  %80 = load i32, ptr %38, align 8, !tbaa !53
  %81 = icmp slt i32 %58, %80
  br i1 %81, label %next_line.exit11, label %82

82:                                               ; preds = %79
  %83 = sext i32 %80 to i64
  %84 = getelementptr inbounds i8, ptr %59, i64 %83
  store i8 0, ptr %84, align 1, !tbaa !32
  br label %next_line.exit11.sink.split

next_line.exit11.sink.split:                      ; preds = %73, %82, %next_line.exit.thread14
  %storemerge.i9.sink = phi i32 [ 0, %next_line.exit.thread14 ], [ 0, %82 ], [ %78, %73 ]
  %.0.ph = phi ptr [ %3, %next_line.exit.thread14 ], [ %59, %82 ], [ %59, %73 ]
  store i32 %storemerge.i9.sink, ptr %4, align 4, !tbaa !56
  br label %next_line.exit11

next_line.exit11:                                 ; preds = %next_line.exit11.sink.split, %79, %next_line.exit
  %.0 = phi ptr [ %3, %next_line.exit ], [ null, %79 ], [ %.0.ph, %next_line.exit11.sink.split ]
  ret ptr %.0
}